; ModuleID = '7/859.c'
source_filename = "7/859.c"
target datalayout = "e-m:e-p270:32:32-p271:32:32-p272:64:64-i64:64-f80:128-n8:16:32:64-S128"
target triple = "x86_64-pc-linux-gnu"

@.str = private unnamed_addr constant [3 x i8] c"%c\00", align 1
@.str.1 = private unnamed_addr constant [3 x i8] c"%s\00", align 1

; Function Attrs: noinline nounwind uwtable
define dso_local i32 @main() #0 {
  %1 = alloca i32, align 4
  %2 = alloca [100 x i8], align 16
  %3 = alloca [100 x i8], align 16
  %4 = alloca [100 x i8], align 16
  %5 = alloca [100 x i8], align 16
  %6 = alloca [1 x i8], align 1
  %7 = alloca i8, align 1
  %8 = alloca i32, align 4
  %9 = alloca i32, align 4
  %10 = alloca i32, align 4
  %11 = alloca i32, align 4
  %12 = alloca i32, align 4
  %13 = alloca i32, align 4
  store i32 0, i32* %1, align 4
  %14 = getelementptr inbounds [100 x i8], [100 x i8]* %2, i64 0, i64 0
  %15 = call i32 (i8*, ...) bitcast (i32 (...)* @gets to i32 (i8*, ...)*)(i8* %14)
  %16 = getelementptr inbounds [100 x i8], [100 x i8]* %3, i64 0, i64 0
  %17 = call i32 (i8*, ...) bitcast (i32 (...)* @gets to i32 (i8*, ...)*)(i8* %16)
  %18 = getelementptr inbounds [100 x i8], [100 x i8]* %4, i64 0, i64 0
  %19 = call i32 (i8*, ...) bitcast (i32 (...)* @gets to i32 (i8*, ...)*)(i8* %18)
  %20 = getelementptr inbounds [100 x i8], [100 x i8]* %2, i64 0, i64 0
  %21 = call i64 @strlen(i8* %20) #4
  %22 = trunc i64 %21 to i32
  store i32 %22, i32* %11, align 4
  %23 = getelementptr inbounds [100 x i8], [100 x i8]* %3, i64 0, i64 0
  %24 = call i64 @strlen(i8* %23) #4
  %25 = trunc i64 %24 to i32
  store i32 %25, i32* %12, align 4
  store i32 0, i32* %8, align 4
  br label %26

26:                                               ; preds = %82, %0
  %27 = load i32, i32* %8, align 4
  %28 = load i32, i32* %11, align 4
  %29 = icmp slt i32 %27, %28
  br i1 %29, label %30, label %83

30:                                               ; preds = %26
  %31 = getelementptr inbounds [1 x i8], [1 x i8]* %6, i64 0, i64 0
  %32 = load i32, i32* %8, align 4
  %33 = sext i32 %32 to i64
  %34 = getelementptr inbounds [100 x i8], [100 x i8]* %2, i64 0, i64 %33
  %35 = load i8, i8* %34, align 1
  %36 = sext i8 %35 to i32
  %37 = call i32 (i8*, i8*, ...) @sprintf(i8* %31, i8* getelementptr inbounds ([3 x i8], [3 x i8]* @.str, i64 0, i64 0), i32 %36) #5
  %38 = getelementptr inbounds [100 x i8], [100 x i8]* %5, i64 0, i64 0
  %39 = getelementptr inbounds [1 x i8], [1 x i8]* %6, i64 0, i64 0
  %40 = call i8* @strcpy(i8* %38, i8* %39) #5
  store i32 1, i32* %10, align 4
  br label %41

41:                                               ; preds = %58, %30
  %42 = load i32, i32* %10, align 4
  %43 = load i32, i32* %12, align 4
  %44 = icmp slt i32 %42, %43
  br i1 %44, label %45, label %61

45:                                               ; preds = %41
  %46 = getelementptr inbounds [1 x i8], [1 x i8]* %6, i64 0, i64 0
  %47 = load i32, i32* %8, align 4
  %48 = load i32, i32* %10, align 4
  %49 = add nsw i32 %47, %48
  %50 = sext i32 %49 to i64
  %51 = getelementptr inbounds [100 x i8], [100 x i8]* %2, i64 0, i64 %50
  %52 = load i8, i8* %51, align 1
  %53 = sext i8 %52 to i32
  %54 = call i32 (i8*, i8*, ...) @sprintf(i8* %46, i8* getelementptr inbounds ([3 x i8], [3 x i8]* @.str, i64 0, i64 0), i32 %53) #5
  %55 = getelementptr inbounds [100 x i8], [100 x i8]* %5, i64 0, i64 0
  %56 = getelementptr inbounds [1 x i8], [1 x i8]* %6, i64 0, i64 0
  %57 = call i8* @strcat(i8* %55, i8* %56) #5
  br label %58

58:                                               ; preds = %45
  %59 = load i32, i32* %10, align 4
  %60 = add nsw i32 %59, 1
  store i32 %60, i32* %10, align 4
  br label %41

61:                                               ; preds = %41
  %62 = getelementptr inbounds [100 x i8], [100 x i8]* %5, i64 0, i64 0
  %63 = getelementptr inbounds [100 x i8], [100 x i8]* %3, i64 0, i64 0
  %64 = call i32 @strcmp(i8* %62, i8* %63) #4
  store i32 %64, i32* %10, align 4
  %65 = load i32, i32* %10, align 4
  %66 = icmp eq i32 %65, 0
  br i1 %66, label %67, label %73

67:                                               ; preds = %61
  %68 = getelementptr inbounds [100 x i8], [100 x i8]* %4, i64 0, i64 0
  %69 = call i32 (i8*, ...) @printf(i8* getelementptr inbounds ([3 x i8], [3 x i8]* @.str.1, i64 0, i64 0), i8* %68)
  %70 = load i32, i32* %8, align 4
  %71 = load i32, i32* %12, align 4
  %72 = add nsw i32 %70, %71
  store i32 %72, i32* %8, align 4
  br label %83

73:                                               ; preds = %61
  %74 = load i32, i32* %8, align 4
  %75 = sext i32 %74 to i64
  %76 = getelementptr inbounds [100 x i8], [100 x i8]* %2, i64 0, i64 %75
  %77 = load i8, i8* %76, align 1
  %78 = sext i8 %77 to i32
  %79 = call i32 (i8*, ...) @printf(i8* getelementptr inbounds ([3 x i8], [3 x i8]* @.str, i64 0, i64 0), i32 %78)
  %80 = load i32, i32* %8, align 4
  %81 = add nsw i32 %80, 1
  store i32 %81, i32* %8, align 4
  br label %82

82:                                               ; preds = %73
  br label %26

83:                                               ; preds = %67, %26
  br label %84

84:                                               ; preds = %88, %83
  %85 = load i32, i32* %8, align 4
  %86 = load i32, i32* %11, align 4
  %87 = icmp slt i32 %85, %86
  br i1 %87, label %88, label %97

88:                                               ; preds = %84
  %89 = load i32, i32* %8, align 4
  %90 = sext i32 %89 to i64
  %91 = getelementptr inbounds [100 x i8], [100 x i8]* %2, i64 0, i64 %90
  %92 = load i8, i8* %91, align 1
  %93 = sext i8 %92 to i32
  %94 = call i32 (i8*, ...) @printf(i8* getelementptr inbounds ([3 x i8], [3 x i8]* @.str, i64 0, i64 0), i32 %93)
  %95 = load i32, i32* %8, align 4
  %96 = add nsw i32 %95, 1
  store i32 %96, i32* %8, align 4
  br label %84

97:                                               ; preds = %84
  ret i32 0
}

declare dso_local i32 @gets(...) #1

; Function Attrs: nounwind readonly
declare dso_local i64 @strlen(i8*) #2

; Function Attrs: nounwind
declare dso_local i32 @sprintf(i8*, i8*, ...) #3

; Function Attrs: nounwind
declare dso_local i8* @strcpy(i8*, i8*) #3

; Function Attrs: nounwind
declare dso_local i8* @strcat(i8*, i8*) #3

; Function Attrs: nounwind readonly
declare dso_local i32 @strcmp(i8*, i8*) #2

declare dso_local i32 @printf(i8*, ...) #1


!llvm.module.flags = !{!0}
!llvm.ident = !{!1}

!0 = !{i32 1, !"wchar_size", i32 4}
!1 = !{!"clang version 10.0.0-4ubuntu1 "}
